target datalayout = "e-m:e-p270:32:32-p271:32:32-p272:64:64-i64:64-i128:128-f80:128-n8:16:32:64-S128"
target triple = "x86_64-pc-linux-gnu"

%struct.H5VL_loc_params_t = type { i32, i32, %union.anon }
%union.anon = type { %struct.H5VL_loc_by_idx }
%struct.H5VL_loc_by_idx = type { ptr, i32, i32, i64, i64 }
%struct.H5VL_object_t = type { ptr, ptr, i64 }

@H5_libinit_g = external global i8, align 1
@H5_libterm_g = external global i8, align 1
@.str = private unnamed_addr constant [103 x i8] c"generated/home/dtcxzyw/WorkSpace/Projects/compilers/llvm-opt-benchmark/bench/hdf5/hdf5/src/H5Gdeprec.c\00", align 1
@H5E_FUNC_g = external global i64, align 8
@H5E_CANTINIT_g = external global i64, align 8
@.str.1 = private unnamed_addr constant [30 x i8] c"library initialization failed\00", align 1
@H5E_CANTSET_g = external global i64, align 8
@.str.2 = private unnamed_addr constant [22 x i8] c"can't set API context\00", align 1
@H5E_ARGS_g = external global i64, align 8
@H5E_BADVALUE_g = external global i64, align 8
@H5E_BADTYPE_g = external global i64, align 8
@H5E_SYM_g = external global i64, align 8
@.str.11 = private unnamed_addr constant [28 x i8] c"invalid location identifier\00", align 1
@H5P_LST_GROUP_ACCESS_ID_g = external global i64, align 8
@H5P_LST_DATASET_XFER_ID_g = external global i64, align 8
@H5E_CANTREGISTER_g = external global i64, align 8
@.str.13 = private unnamed_addr constant [25 x i8] c"unable to register group\00", align 1
@H5E_CLOSEERROR_g = external global i64, align 8
@.str.15 = private unnamed_addr constant [24 x i8] c"unable to release group\00", align 1
@__func__.H5Gopen1 = private unnamed_addr constant [9 x i8] c"H5Gopen1\00", align 1
@.str.16 = private unnamed_addr constant [8 x i8] c"no name\00", align 1
@H5E_CANTOPENOBJ_g = external global i64, align 8
@.str.17 = private unnamed_addr constant [21 x i8] c"unable to open group\00", align 1

; Function Attrs: nounwind uwtable
define i64 @H5Gopen1(i64 noundef %0, ptr noundef %1) #0 {
  %3 = alloca i64, align 8
  %4 = alloca ptr, align 8
  %5 = alloca ptr, align 8
  %6 = alloca ptr, align 8
  %7 = alloca %struct.H5VL_loc_params_t, align 8
  %8 = alloca i64, align 8
  %9 = alloca i8, align 1
  %10 = alloca i8, align 1
  store i64 %0, ptr %3, align 8
  store ptr %1, ptr %4, align 8
  store ptr null, ptr %5, align 8
  store ptr null, ptr %6, align 8
  store i64 -1, ptr %8, align 8
  store i8 0, ptr %9, align 1
  store i8 0, ptr %10, align 1
  %11 = load i8, ptr @H5_libinit_g, align 1
  %12 = trunc i8 %11 to i1
  br i1 %12, label %17, label %13

13:                                               ; preds = %2
  %14 = load i8, ptr @H5_libterm_g, align 1
  %15 = trunc i8 %14 to i1
  %16 = xor i1 %15, true
  br label %17

17:                                               ; preds = %13, %2
  %18 = phi i1 [ false, %2 ], [ %16, %13 ]
  %19 = xor i1 %18, true
  %20 = xor i1 %19, true
  %21 = zext i1 %20 to i32
  %22 = sext i32 %21 to i64
  %23 = icmp ne i64 %22, 0
  br i1 %23, label %24, label %48

24:                                               ; preds = %17
  %25 = call i32 @H5_init_library()
  %26 = icmp slt i32 %25, 0
  %27 = xor i1 %26, true
  %28 = xor i1 %27, true
  %29 = zext i1 %28 to i32
  %30 = sext i32 %29 to i64
  %31 = icmp ne i64 %30, 0
  br i1 %31, label %32, label %47

32:                                               ; preds = %24
  br label %33

33:                                               ; preds = %32
  br label %34

34:                                               ; preds = %33
  br label %35

35:                                               ; preds = %34
  %36 = load i64, ptr @H5E_FUNC_g, align 8
  %37 = load i64, ptr @H5E_CANTINIT_g, align 8
  %38 = call i32 (ptr, ptr, i32, i64, i64, ptr, ...) @H5E_printf_stack(ptr noundef @.str, ptr noundef @__func__.H5Gopen1, i32 noundef 254, i64 noundef %36, i64 noundef %37, ptr noundef @.str.1)
  br label %39

39:                                               ; preds = %35
  store i8 1, ptr %10, align 1
  %40 = load i8, ptr %10, align 1
  %41 = trunc i8 %40 to i1
  %42 = zext i1 %41 to i8
  store i8 %42, ptr %10, align 1
  br label %43

43:                                               ; preds = %39
  br label %44

44:                                               ; preds = %43
  store i64 -1, ptr %8, align 8
  br label %163

45:                                               ; No predecessors!
  br label %46

46:                                               ; preds = %45
  br label %47

47:                                               ; preds = %46, %24
  br label %48

48:                                               ; preds = %47, %17
  %49 = call i32 @H5CX_push()
  %50 = icmp slt i32 %49, 0
  %51 = xor i1 %50, true
  %52 = xor i1 %51, true
  %53 = zext i1 %52 to i32
  %54 = sext i32 %53 to i64
  %55 = icmp ne i64 %54, 0
  br i1 %55, label %56, label %71

56:                                               ; preds = %48
  br label %57

57:                                               ; preds = %56
  br label %58

58:                                               ; preds = %57
  br label %59

59:                                               ; preds = %58
  %60 = load i64, ptr @H5E_FUNC_g, align 8
  %61 = load i64, ptr @H5E_CANTSET_g, align 8
  %62 = call i32 (ptr, ptr, i32, i64, i64, ptr, ...) @H5E_printf_stack(ptr noundef @.str, ptr noundef @__func__.H5Gopen1, i32 noundef 254, i64 noundef %60, i64 noundef %61, ptr noundef @.str.2)
  br label %63

63:                                               ; preds = %59
  store i8 1, ptr %10, align 1
  %64 = load i8, ptr %10, align 1
  %65 = trunc i8 %64 to i1
  %66 = zext i1 %65 to i8
  store i8 %66, ptr %10, align 1
  br label %67

67:                                               ; preds = %63
  br label %68

68:                                               ; preds = %67
  store i64 -1, ptr %8, align 8
  br label %163

69:                                               ; No predecessors!
  br label %70

70:                                               ; preds = %69
  br label %72

71:                                               ; preds = %48
  store i8 1, ptr %9, align 1
  br label %72

72:                                               ; preds = %71, %70
  %73 = call i32 @H5E_clear_stack()
  %74 = load ptr, ptr %4, align 8
  %75 = icmp ne ptr %74, null
  br i1 %75, label %76, label %80

76:                                               ; preds = %72
  %77 = load ptr, ptr %4, align 8
  %78 = load i8, ptr %77, align 1
  %79 = icmp ne i8 %78, 0
  br i1 %79, label %95, label %80

80:                                               ; preds = %76, %72
  br label %81

81:                                               ; preds = %80
  br label %82

82:                                               ; preds = %81
  br label %83

83:                                               ; preds = %82
  %84 = load i64, ptr @H5E_ARGS_g, align 8
  %85 = load i64, ptr @H5E_BADVALUE_g, align 8
  %86 = call i32 (ptr, ptr, i32, i64, i64, ptr, ...) @H5E_printf_stack(ptr noundef @.str, ptr noundef @__func__.H5Gopen1, i32 noundef 258, i64 noundef %84, i64 noundef %85, ptr noundef @.str.16)
  br label %87

87:                                               ; preds = %83
  store i8 1, ptr %10, align 1
  %88 = load i8, ptr %10, align 1
  %89 = trunc i8 %88 to i1
  %90 = zext i1 %89 to i8
  store i8 %90, ptr %10, align 1
  br label %91

91:                                               ; preds = %87
  br label %92

92:                                               ; preds = %91
  store i64 -1, ptr %8, align 8
  br label %163

93:                                               ; No predecessors!
  br label %94

94:                                               ; preds = %93
  br label %95

95:                                               ; preds = %94, %76
  %96 = getelementptr inbounds %struct.H5VL_loc_params_t, ptr %7, i32 0, i32 1
  store i32 0, ptr %96, align 4
  %97 = load i64, ptr %3, align 8
  %98 = call i32 @H5I_get_type(i64 noundef %97)
  %99 = getelementptr inbounds %struct.H5VL_loc_params_t, ptr %7, i32 0, i32 0
  store i32 %98, ptr %99, align 8
  %100 = load i64, ptr %3, align 8
  %101 = call ptr @H5I_object(i64 noundef %100)
  store ptr %101, ptr %6, align 8
  %102 = icmp eq ptr null, %101
  br i1 %102, label %103, label %118

103:                                              ; preds = %95
  br label %104

104:                                              ; preds = %103
  br label %105

105:                                              ; preds = %104
  br label %106

106:                                              ; preds = %105
  %107 = load i64, ptr @H5E_ARGS_g, align 8
  %108 = load i64, ptr @H5E_BADTYPE_g, align 8
  %109 = call i32 (ptr, ptr, i32, i64, i64, ptr, ...) @H5E_printf_stack(ptr noundef @.str, ptr noundef @__func__.H5Gopen1, i32 noundef 266, i64 noundef %107, i64 noundef %108, ptr noundef @.str.11)
  br label %110

110:                                              ; preds = %106
  store i8 1, ptr %10, align 1
  %111 = load i8, ptr %10, align 1
  %112 = trunc i8 %111 to i1
  %113 = zext i1 %112 to i8
  store i8 %113, ptr %10, align 1
  br label %114

114:                                              ; preds = %110
  br label %115

115:                                              ; preds = %114
  store i64 -1, ptr %8, align 8
  br label %163

116:                                              ; No predecessors!
  br label %117

117:                                              ; preds = %116
  br label %118

118:                                              ; preds = %117, %95
  %119 = load ptr, ptr %6, align 8
  %120 = load ptr, ptr %4, align 8
  %121 = load i64, ptr @H5P_LST_GROUP_ACCESS_ID_g, align 8
  %122 = load i64, ptr @H5P_LST_DATASET_XFER_ID_g, align 8
  %123 = call ptr @H5VL_group_open(ptr noundef %119, ptr noundef %7, ptr noundef %120, i64 noundef %121, i64 noundef %122, ptr noundef null)
  store ptr %123, ptr %5, align 8
  %124 = icmp eq ptr null, %123
  br i1 %124, label %125, label %140

125:                                              ; preds = %118
  br label %126

126:                                              ; preds = %125
  br label %127

127:                                              ; preds = %126
  br label %128

128:                                              ; preds = %127
  %129 = load i64, ptr @H5E_SYM_g, align 8
  %130 = load i64, ptr @H5E_CANTOPENOBJ_g, align 8
  %131 = call i32 (ptr, ptr, i32, i64, i64, ptr, ...) @H5E_printf_stack(ptr noundef @.str, ptr noundef @__func__.H5Gopen1, i32 noundef 271, i64 noundef %129, i64 noundef %130, ptr noundef @.str.17)
  br label %132

132:                                              ; preds = %128
  store i8 1, ptr %10, align 1
  %133 = load i8, ptr %10, align 1
  %134 = trunc i8 %133 to i1
  %135 = zext i1 %134 to i8
  store i8 %135, ptr %10, align 1
  br label %136

136:                                              ; preds = %132
  br label %137

137:                                              ; preds = %136
  store i64 -1, ptr %8, align 8
  br label %163

138:                                              ; No predecessors!
  br label %139

139:                                              ; preds = %138
  br label %140

140:                                              ; preds = %139, %118
  %141 = load ptr, ptr %5, align 8
  %142 = load ptr, ptr %6, align 8
  %143 = getelementptr inbounds %struct.H5VL_object_t, ptr %142, i32 0, i32 1
  %144 = load ptr, ptr %143, align 8
  %145 = call i64 @H5VL_register(i32 noundef 2, ptr noundef %141, ptr noundef %144, i1 noundef zeroext true)
  store i64 %145, ptr %8, align 8
  %146 = icmp slt i64 %145, 0
  br i1 %146, label %147, label %162

147:                                              ; preds = %140
  br label %148

148:                                              ; preds = %147
  br label %149

149:                                              ; preds = %148
  br label %150

150:                                              ; preds = %149
  %151 = load i64, ptr @H5E_SYM_g, align 8
  %152 = load i64, ptr @H5E_CANTREGISTER_g, align 8
  %153 = call i32 (ptr, ptr, i32, i64, i64, ptr, ...) @H5E_printf_stack(ptr noundef @.str, ptr noundef @__func__.H5Gopen1, i32 noundef 275, i64 noundef %151, i64 noundef %152, ptr noundef @.str.13)
  br label %154

154:                                              ; preds = %150
  store i8 1, ptr %10, align 1
  %155 = load i8, ptr %10, align 1
  %156 = trunc i8 %155 to i1
  %157 = zext i1 %156 to i8
  store i8 %157, ptr %10, align 1
  br label %158

158:                                              ; preds = %154
  br label %159

159:                                              ; preds = %158
  store i64 -1, ptr %8, align 8
  br label %163

160:                                              ; No predecessors!
  br label %161

161:                                              ; preds = %160
  br label %162

162:                                              ; preds = %161, %140
  br label %163

163:                                              ; preds = %162, %159, %137, %115, %92, %68, %44
  %164 = load i64, ptr %8, align 8
  %165 = icmp eq i64 -1, %164
  br i1 %165, label %166, label %188

166:                                              ; preds = %163
  %167 = load ptr, ptr %5, align 8
  %168 = icmp ne ptr %167, null
  br i1 %168, label %169, label %187

169:                                              ; preds = %166
  %170 = load ptr, ptr %6, align 8
  %171 = load i64, ptr @H5P_LST_DATASET_XFER_ID_g, align 8
  %172 = call i32 @H5VL_group_close(ptr noundef %170, i64 noundef %171, ptr noundef null)
  %173 = icmp slt i32 %172, 0
  br i1 %173, label %174, label %187

174:                                              ; preds = %169
  br label %175

175:                                              ; preds = %174
  br label %176

176:                                              ; preds = %175
  br label %177

177:                                              ; preds = %176
  %178 = load i64, ptr @H5E_SYM_g, align 8
  %179 = load i64, ptr @H5E_CLOSEERROR_g, align 8
  %180 = call i32 (ptr, ptr, i32, i64, i64, ptr, ...) @H5E_printf_stack(ptr noundef @.str, ptr noundef @__func__.H5Gopen1, i32 noundef 280, i64 noundef %178, i64 noundef %179, ptr noundef @.str.15)
  br label %181

181:                                              ; preds = %177
  store i8 1, ptr %10, align 1
  %182 = load i8, ptr %10, align 1
  %183 = trunc i8 %182 to i1
  %184 = zext i1 %183 to i8
  store i8 %184, ptr %10, align 1
  br label %185

185:                                              ; preds = %181
  store i64 -1, ptr %8, align 8
  br label %186

186:                                              ; preds = %185
  br label %187

187:                                              ; preds = %186, %169, %166
  br label %188

188:                                              ; preds = %187, %163
  %189 = load i8, ptr %9, align 1
  %190 = trunc i8 %189 to i1
  %191 = xor i1 %190, true
  %192 = xor i1 %191, true
  %193 = zext i1 %192 to i32
  %194 = sext i32 %193 to i64
  %195 = icmp ne i64 %194, 0
  br i1 %195, label %196, label %198

196:                                              ; preds = %188
  %197 = call i32 @H5CX_pop(i1 noundef zeroext true)
  store i8 0, ptr %9, align 1
  br label %198

198:                                              ; preds = %196, %188
  %199 = load i8, ptr %10, align 1
  %200 = trunc i8 %199 to i1
  %201 = xor i1 %200, true
  %202 = xor i1 %201, true
  %203 = zext i1 %202 to i32
  %204 = sext i32 %203 to i64
  %205 = icmp ne i64 %204, 0
  br i1 %205, label %206, label %208

206:                                              ; preds = %198
  %207 = call i32 @H5E_dump_api_stack()
  br label %208

208:                                              ; preds = %206, %198
  %209 = load i64, ptr %8, align 8
  ret i64 %209
}