; Function Attrs: nounwind uwtable
define range(i64 -1, -9223372036854775808) i64 @H5Gopen1(i64 noundef %0, ptr noundef %1) local_unnamed_addr #1 {
  %3 = alloca %struct.H5VL_loc_params_t, align 8
  %4 = load i8, ptr @H5_libinit_g, align 1
  %5 = trunc i8 %4 to i1
  %6 = load i8, ptr @H5_libterm_g, align 1
  %7 = trunc i8 %6 to i1
  %8 = select i1 %5, i1 true, i1 %7
  br i1 %8, label %16, label %9

9:                                                ; preds = %2
  %10 = tail call i32 @H5_init_library() #4
  %11 = icmp slt i32 %10, 0
  br i1 %11, label %12, label %16

12:                                               ; preds = %9
  %13 = load i64, ptr @H5E_FUNC_g, align 8
  %14 = load i64, ptr @H5E_CANTINIT_g, align 8
  %15 = tail call i32 (ptr, ptr, i32, i64, i64, ptr, ...) @H5E_printf_stack(ptr noundef nonnull @.str, ptr noundef nonnull @__func__.H5Gopen1, i32 noundef 254, i64 noundef %13, i64 noundef %14, ptr noundef nonnull @.str.1) #4
  br label %.thread55

16:                                               ; preds = %9, %2
  %17 = tail call i32 @H5CX_push() #4
  %18 = icmp slt i32 %17, 0
  br i1 %18, label %19, label %23

19:                                               ; preds = %16
  %20 = load i64, ptr @H5E_FUNC_g, align 8
  %21 = load i64, ptr @H5E_CANTSET_g, align 8
  %22 = tail call i32 (ptr, ptr, i32, i64, i64, ptr, ...) @H5E_printf_stack(ptr noundef nonnull @.str, ptr noundef nonnull @__func__.H5Gopen1, i32 noundef 254, i64 noundef %20, i64 noundef %21, ptr noundef nonnull @.str.2) #4
  br label %.thread55

23:                                               ; preds = %16
  %24 = tail call i32 @H5E_clear_stack() #4
  %.not = icmp eq ptr %1, null
  br i1 %.not, label %27, label %25

25:                                               ; preds = %23
  %26 = load i8, ptr %1, align 1
  %.not32 = icmp eq i8 %26, 0
  br i1 %.not32, label %27, label %31

27:                                               ; preds = %23, %25
  %28 = load i64, ptr @H5E_ARGS_g, align 8
  %29 = load i64, ptr @H5E_BADVALUE_g, align 8
  %30 = tail call i32 (ptr, ptr, i32, i64, i64, ptr, ...) @H5E_printf_stack(ptr noundef nonnull @.str, ptr noundef nonnull @__func__.H5Gopen1, i32 noundef 258, i64 noundef %28, i64 noundef %29, ptr noundef nonnull @.str.16) #4
  br label %.thread64

31:                                               ; preds = %25
  %32 = getelementptr inbounds i8, ptr %3, i64 4
  store i32 0, ptr %32, align 4
  %33 = tail call i32 @H5I_get_type(i64 noundef %0) #4
  store i32 %33, ptr %3, align 8
  %34 = tail call ptr @H5I_object(i64 noundef %0) #4
  %35 = icmp eq ptr %34, null
  br i1 %35, label %36, label %40

36:                                               ; preds = %31
  %37 = load i64, ptr @H5E_ARGS_g, align 8
  %38 = load i64, ptr @H5E_BADTYPE_g, align 8
  %39 = tail call i32 (ptr, ptr, i32, i64, i64, ptr, ...) @H5E_printf_stack(ptr noundef nonnull @.str, ptr noundef nonnull @__func__.H5Gopen1, i32 noundef 266, i64 noundef %37, i64 noundef %38, ptr noundef nonnull @.str.11) #4
  br label %.thread64

40:                                               ; preds = %31
  %41 = load i64, ptr @H5P_LST_GROUP_ACCESS_ID_g, align 8
  %42 = load i64, ptr @H5P_LST_DATASET_XFER_ID_g, align 8
  %43 = call ptr @H5VL_group_open(ptr noundef nonnull %34, ptr noundef nonnull %3, ptr noundef nonnull %1, i64 noundef %41, i64 noundef %42, ptr noundef null) #4
  %44 = icmp eq ptr %43, null
  br i1 %44, label %45, label %49

45:                                               ; preds = %40
  %46 = load i64, ptr @H5E_SYM_g, align 8
  %47 = load i64, ptr @H5E_CANTOPENOBJ_g, align 8
  %48 = call i32 (ptr, ptr, i32, i64, i64, ptr, ...) @H5E_printf_stack(ptr noundef nonnull @.str, ptr noundef nonnull @__func__.H5Gopen1, i32 noundef 271, i64 noundef %46, i64 noundef %47, ptr noundef nonnull @.str.17) #4
  br label %.thread64

49:                                               ; preds = %40
  %50 = getelementptr inbounds i8, ptr %34, i64 8
  %51 = load ptr, ptr %50, align 8
  %52 = call i64 @H5VL_register(i32 noundef 2, ptr noundef nonnull %43, ptr noundef %51, i1 noundef zeroext true) #4
  %53 = icmp slt i64 %52, 0
  br i1 %53, label %54, label %67

54:                                               ; preds = %49
  %55 = load i64, ptr @H5E_SYM_g, align 8
  %56 = load i64, ptr @H5E_CANTREGISTER_g, align 8
  %57 = call i32 (ptr, ptr, i32, i64, i64, ptr, ...) @H5E_printf_stack(ptr noundef nonnull @.str, ptr noundef nonnull @__func__.H5Gopen1, i32 noundef 275, i64 noundef %55, i64 noundef %56, ptr noundef nonnull @.str.13) #4
  %58 = load i64, ptr @H5P_LST_DATASET_XFER_ID_g, align 8
  %59 = call i32 @H5VL_group_close(ptr noundef nonnull %34, i64 noundef %58, ptr noundef null) #4
  %60 = icmp slt i32 %59, 0
  br i1 %60, label %61, label %.thread60

61:                                               ; preds = %54
  %62 = load i64, ptr @H5E_SYM_g, align 8
  %63 = load i64, ptr @H5E_CLOSEERROR_g, align 8
  %64 = call i32 (ptr, ptr, i32, i64, i64, ptr, ...) @H5E_printf_stack(ptr noundef nonnull @.str, ptr noundef nonnull @__func__.H5Gopen1, i32 noundef 280, i64 noundef %62, i64 noundef %63, ptr noundef nonnull @.str.15) #4
  br label %.thread60

.thread60:                                        ; preds = %54, %61
  %65 = call i32 @H5CX_pop(i1 noundef zeroext true) #4
  br label %.thread55

.thread64:                                        ; preds = %36, %45, %27
  %66 = call i32 @H5CX_pop(i1 noundef zeroext true) #4
  br label %.thread55

67:                                               ; preds = %49
  %68 = call i32 @H5CX_pop(i1 noundef zeroext true) #4
  br label %70

.thread55:                                        ; preds = %12, %19, %.thread64, %.thread60
  %69 = call i32 @H5E_dump_api_stack() #4
  br label %70

70:                                               ; preds = %67, %.thread55
  %.1234558 = phi i64 [ -1, %.thread55 ], [ %52, %67 ]
  ret i64 %.1234558
}